target datalayout = "e-m:e-p270:32:32-p271:32:32-p272:64:64-i64:64-i128:128-f80:128-n8:16:32:64-S128"
target triple = "x86_64-pc-linux-gnu"

%"class.algebraic_numbers::manager" = type <{ ptr, ptr, i8, [7 x i8] }>
%"struct.algebraic_numbers::manager::imp" = type { ptr, ptr, ptr, ptr, %class.mpbq_manager, %class.mpbqi_manager, %"class.polynomial::manager", %"class.upolynomial::manager", %class.mpq, %class._scoped_numeral, %"class.upolynomial::scoped_numeral_vector", %"class.upolynomial::scoped_numeral_vector", %"class.upolynomial::scoped_numeral_vector", %"class.upolynomial::scoped_numeral_vector", %"class.upolynomial::core_manager::factors", %class._scoped_numeral_vector.3, %class._scoped_numeral_vector.3, %class._scoped_numeral_vector.3, %"class.upolynomial::scoped_numeral_vector", i32, i32, i32, i8, %"struct.polynomial::factor_params", i32, i32, i32, i32, i32, %class.svector.1, %class.svector.1 }
%class.mpbq_manager = type { ptr, %class.mpz, %class.mpz, %class.mpbq, %class.mpz, %class.mpz, %class.mpz, %class.mpbq, %class.mpbq, %class.mpz, %class.mpz, %class.mpz }
%class.mpbq = type <{ %class.mpz, i32, [4 x i8] }>
%class.mpz = type { i32, i8, ptr }
%class.mpbqi_manager = type { %class.basic_interval_manager }
%class.basic_interval_manager = type { ptr, %class.mpbq, %class.mpbq, %class.mpbq }
%"class.polynomial::manager" = type { ptr }
%"class.upolynomial::manager" = type { %"class.upolynomial::core_manager", %class.svector, %class.svector, %class.svector, %class.svector, %class.svector }
%"class.upolynomial::core_manager" = type { ptr, %class.mpzzp_manager, %class.svector, %class.svector, %class.svector, %class.svector, %class.svector, %class.svector, %class.svector, [6 x %class.svector], %class.svector, %class.svector, %class.svector }
%class.mpzzp_manager = type { ptr, i8, %class.mpz, %class.mpz, %class.mpz, i8, %class.mpz, %class.mpz, %class.mpz, %class.mpz }
%class.svector = type { %class.vector }
%class.vector = type { ptr }
%class.mpq = type { %class.mpz, %class.mpz }
%class._scoped_numeral = type { ptr, %class.mpz }
%"class.upolynomial::core_manager::factors" = type { %class.vector.0, %class.svector.1, ptr, %class.mpz, i32, i32 }
%class.vector.0 = type { ptr }
%class._scoped_numeral_vector.3 = type { %class.svector.4, ptr }
%class.svector.4 = type { %class.vector.5 }
%class.vector.5 = type { ptr }
%"class.upolynomial::scoped_numeral_vector" = type { %class._scoped_numeral_vector }
%class._scoped_numeral_vector = type { %class.svector, ptr }
%"struct.polynomial::factor_params" = type { i32, i32, i32 }
%class.svector.1 = type { %class.vector.2 }
%class.vector.2 = type { ptr }
%"struct.algebraic_numbers::algebraic_cell" = type <{ i32, [4 x i8], ptr, %"class.basic_interval_manager<mpbq_manager, false>::interval", i32, [4 x i8] }>
%"class.basic_interval_manager<mpbq_manager, false>::interval" = type { %class.mpbq, %class.mpbq }
%"class.algebraic_numbers::anum" = type { ptr }

; Function Attrs: mustprogress nounwind uwtable
define linkonce_odr hidden noundef nonnull align 8 dereferenceable(20) ptr @_ZN22basic_interval_managerI12mpbq_managerLb0EE8interval5lowerEv(ptr noundef nonnull align 8 dereferenceable(48) %0) #5 comdat align 2 {
  %2 = alloca ptr, align 8
  store ptr %0, ptr %2, align 8, !tbaa !125
  %3 = load ptr, ptr %2, align 8
  %4 = getelementptr inbounds nuw %"class.basic_interval_manager<mpbq_manager, false>::interval", ptr %3, i32 0, i32 0
  ret ptr %4
}

; Function Attrs: mustprogress nounwind uwtable
define linkonce_odr hidden noundef zeroext i1 @_ZNK17algebraic_numbers4anum7is_nullEv(ptr noundef nonnull align 8 dereferenceable(8) %0) #5 comdat align 2 {
  %2 = alloca ptr, align 8
  store ptr %0, ptr %2, align 8, !tbaa !65
  %3 = load ptr, ptr %2, align 8
  %4 = getelementptr inbounds nuw %"class.algebraic_numbers::anum", ptr %3, i32 0, i32 0
  %5 = load ptr, ptr %4, align 8, !tbaa !124
  %6 = icmp eq ptr %5, null
  ret i1 %6
}

; Function Attrs: mustprogress uwtable
define linkonce_odr hidden noundef nonnull align 8 dereferenceable(20) ptr @_ZN17algebraic_numbers7manager3imp5lowerEPNS_14algebraic_cellE(ptr noundef nonnull align 8 dereferenceable(936) %0, ptr noundef %1) #4 comdat align 2 {
  %3 = alloca ptr, align 8
  %4 = alloca ptr, align 8
  store ptr %0, ptr %3, align 8, !tbaa !24
  store ptr %1, ptr %4, align 8, !tbaa !67
  %5 = load ptr, ptr %4, align 8, !tbaa !67
  %6 = getelementptr inbounds nuw %"struct.algebraic_numbers::algebraic_cell", ptr %5, i32 0, i32 3
  %7 = call noundef nonnull align 8 dereferenceable(20) ptr @_ZN22basic_interval_managerI12mpbq_managerLb0EE8interval5lowerEv(ptr noundef nonnull align 8 dereferenceable(48) %6)
  ret ptr %7
}

; Function Attrs: mustprogress nounwind uwtable
define linkonce_odr hidden noundef nonnull align 8 dereferenceable(312) ptr @_ZN17algebraic_numbers7manager3imp3upmEv(ptr noundef nonnull align 8 dereferenceable(936) %0) #5 comdat align 2 {
  %2 = alloca ptr, align 8
  store ptr %0, ptr %2, align 8, !tbaa !24
  %3 = load ptr, ptr %2, align 8
  %4 = getelementptr inbounds nuw %"struct.algebraic_numbers::manager::imp", ptr %3, i32 0, i32 7
  ret ptr %4
}

; Function Attrs: mustprogress nounwind uwtable
define linkonce_odr hidden noundef ptr @_ZNK17algebraic_numbers4anum12to_algebraicEv(ptr noundef nonnull align 8 dereferenceable(8) %0) #5 comdat align 2 {
  %2 = alloca ptr, align 8
  store ptr %0, ptr %2, align 8, !tbaa !65
  %3 = load ptr, ptr %2, align 8
  %4 = getelementptr inbounds nuw %"class.algebraic_numbers::anum", ptr %3, i32 0, i32 0
  %5 = load ptr, ptr %4, align 8, !tbaa !124
  %6 = ptrtoint ptr %5 to i64
  %7 = and i64 %6, -8
  %8 = inttoptr i64 %7 to ptr
  ret ptr %8
}

; Function Attrs: mustprogress nounwind uwtable
define linkonce_odr hidden noundef zeroext i1 @_ZN17algebraic_numbers7manager3imp7is_zeroERKNS_4anumE(ptr noundef nonnull align 8 dereferenceable(936) %0, ptr noundef nonnull align 8 dereferenceable(8) %1) #5 comdat align 2 {
  %3 = alloca ptr, align 8
  %4 = alloca ptr, align 8
  store ptr %0, ptr %3, align 8, !tbaa !24
  store ptr %1, ptr %4, align 8, !tbaa !65
  %5 = load ptr, ptr %4, align 8, !tbaa !65
  %6 = call noundef zeroext i1 @_ZNK17algebraic_numbers4anum7is_nullEv(ptr noundef nonnull align 8 dereferenceable(8) %5)
  ret i1 %6
}

; Function Attrs: mustprogress nounwind uwtable
define linkonce_odr hidden noundef zeroext i1 @_ZNK17algebraic_numbers4anum8is_basicEv(ptr noundef nonnull align 8 dereferenceable(8) %0) #5 comdat align 2 {
  %2 = alloca ptr, align 8
  store ptr %0, ptr %2, align 8, !tbaa !65
  %3 = load ptr, ptr %2, align 8
  %4 = getelementptr inbounds nuw %"class.algebraic_numbers::anum", ptr %3, i32 0, i32 0
  %5 = load ptr, ptr %4, align 8, !tbaa !124
  %6 = ptrtoint ptr %5 to i64
  %7 = and i64 %6, 7
  %8 = icmp eq i64 %7, 0
  ret i1 %8
}

; Function Attrs: mustprogress uwtable
define linkonce_odr hidden noundef i32 @_ZN17algebraic_numbers7manager3imp5get_iERKNS_4anumE(ptr noundef nonnull align 8 dereferenceable(936) %0, ptr noundef nonnull align 8 dereferenceable(8) %1) #4 comdat align 2 {
  %3 = alloca i32, align 4
  %4 = alloca ptr, align 8
  %5 = alloca ptr, align 8
  %6 = alloca ptr, align 8
  store ptr %0, ptr %4, align 8, !tbaa !24
  store ptr %1, ptr %5, align 8, !tbaa !65
  %7 = load ptr, ptr %4, align 8
  %8 = load ptr, ptr %5, align 8, !tbaa !65
  %9 = call noundef zeroext i1 @_ZNK17algebraic_numbers4anum8is_basicEv(ptr noundef nonnull align 8 dereferenceable(8) %8)
  br i1 %9, label %10, label %15

10:                                               ; preds = %2
  %11 = load ptr, ptr %5, align 8, !tbaa !65
  %12 = call noundef zeroext i1 @_ZN17algebraic_numbers7manager3imp7is_zeroERKNS_4anumE(ptr noundef nonnull align 8 dereferenceable(936) %7, ptr noundef nonnull align 8 dereferenceable(8) %11)
  br i1 %12, label %13, label %14

13:                                               ; preds = %10
  store i32 0, ptr %3, align 4
  br label %47

14:                                               ; preds = %10
  store i32 1, ptr %3, align 4
  br label %47

15:                                               ; preds = %2
  call void @llvm.lifetime.start.p0(i64 8, ptr %6) #3
  %16 = load ptr, ptr %5, align 8, !tbaa !65
  %17 = call noundef ptr @_ZNK17algebraic_numbers4anum12to_algebraicEv(ptr noundef nonnull align 8 dereferenceable(8) %16)
  store ptr %17, ptr %6, align 8, !tbaa !67
  %18 = load ptr, ptr %6, align 8, !tbaa !67
  %19 = getelementptr inbounds nuw %"struct.algebraic_numbers::algebraic_cell", ptr %18, i32 0, i32 4
  %20 = load i32, ptr %19, align 8
  %21 = lshr i32 %20, 3
  %22 = icmp eq i32 %21, 0
  br i1 %22, label %23, label %42

23:                                               ; preds = %15
  %24 = call noundef nonnull align 8 dereferenceable(312) ptr @_ZN17algebraic_numbers7manager3imp3upmEv(ptr noundef nonnull align 8 dereferenceable(936) %7)
  %25 = load ptr, ptr %6, align 8, !tbaa !67
  %26 = getelementptr inbounds nuw %"struct.algebraic_numbers::algebraic_cell", ptr %25, i32 0, i32 0
  %27 = load i32, ptr %26, align 8, !tbaa !72
  %28 = load ptr, ptr %6, align 8, !tbaa !67
  %29 = getelementptr inbounds nuw %"struct.algebraic_numbers::algebraic_cell", ptr %28, i32 0, i32 2
  %30 = load ptr, ptr %29, align 8, !tbaa !69
  %31 = load ptr, ptr %6, align 8, !tbaa !67
  %32 = call noundef nonnull align 8 dereferenceable(20) ptr @_ZN17algebraic_numbers7manager3imp5lowerEPNS_14algebraic_cellE(ptr noundef nonnull align 8 dereferenceable(936) %7, ptr noundef %31)
  %33 = call noundef i32 @_ZN11upolynomial7manager11get_root_idEjPK3mpzRK4mpbq(ptr noundef nonnull align 8 dereferenceable(312) %24, i32 noundef %27, ptr noundef %30, ptr noundef nonnull align 8 dereferenceable(20) %32)
  %34 = add i32 %33, 1
  %35 = load ptr, ptr %6, align 8, !tbaa !67
  %36 = getelementptr inbounds nuw %"struct.algebraic_numbers::algebraic_cell", ptr %35, i32 0, i32 4
  %37 = load i32, ptr %36, align 8
  %38 = and i32 %34, 536870911
  %39 = shl i32 %38, 3
  %40 = and i32 %37, 7
  %41 = or i32 %40, %39
  store i32 %41, ptr %36, align 8
  br label %42

42:                                               ; preds = %23, %15
  %43 = load ptr, ptr %6, align 8, !tbaa !67
  %44 = getelementptr inbounds nuw %"struct.algebraic_numbers::algebraic_cell", ptr %43, i32 0, i32 4
  %45 = load i32, ptr %44, align 8
  %46 = lshr i32 %45, 3
  store i32 %46, ptr %3, align 4
  call void @llvm.lifetime.end.p0(i64 8, ptr %6) #3
  br label %47

47:                                               ; preds = %42, %14, %13
  %48 = load i32, ptr %3, align 4
  ret i32 %48
}

; Function Attrs: mustprogress uwtable
define hidden noundef i32 @_ZN17algebraic_numbers7manager5get_iERKNS_4anumE(ptr noundef nonnull align 8 dereferenceable(17) %0, ptr noundef nonnull align 8 dereferenceable(8) %1) #4 align 2 {
  %3 = alloca ptr, align 8
  %4 = alloca ptr, align 8
  store ptr %0, ptr %3, align 8, !tbaa !8
  store ptr %1, ptr %4, align 8, !tbaa !65
  %5 = load ptr, ptr %3, align 8
  %6 = getelementptr inbounds nuw %"class.algebraic_numbers::manager", ptr %5, i32 0, i32 0
  %7 = load ptr, ptr %6, align 8, !tbaa !23
  %8 = load ptr, ptr %4, align 8, !tbaa !65
  %9 = call noundef i32 @_ZN17algebraic_numbers7manager3imp5get_iERKNS_4anumE(ptr noundef nonnull align 8 dereferenceable(936) %7, ptr noundef nonnull align 8 dereferenceable(8) %8)
  ret i32 %9
}