; Function Attrs: mustprogress uwtable
define hidden noundef range(i32 0, 536870912) i32 @_ZN17algebraic_numbers7manager5get_iERKNS_4anumE(ptr noundef nonnull readonly align 8 captures(none) dereferenceable(17) %0, ptr noundef nonnull readonly align 8 captures(none) dereferenceable(8) %1) local_unnamed_addr #3 align 2 {
  %3 = load ptr, ptr %0, align 8, !tbaa !12
  %4 = load ptr, ptr %1, align 8, !tbaa !66
  %5 = ptrtoint ptr %4 to i64
  %6 = and i64 %5, 7
  %7 = icmp eq i64 %6, 0
  br i1 %7, label %8, label %10

8:                                                ; preds = %2
  %9 = icmp ne ptr %4, null
  %..i = zext i1 %9 to i32
  br label %_ZN17algebraic_numbers7manager3imp5get_iERKNS_4anumE.exit

10:                                               ; preds = %2
  %11 = and i64 %5, -8
  %12 = inttoptr i64 %11 to ptr
  %13 = getelementptr inbounds nuw i8, ptr %12, i64 64
  %14 = load i32, ptr %13, align 8
  %15 = icmp ult i32 %14, 8
  br i1 %15, label %16, label %28

16:                                               ; preds = %10
  %17 = getelementptr inbounds nuw i8, ptr %3, i64 328
  %18 = load i32, ptr %12, align 8, !tbaa !72
  %19 = getelementptr inbounds nuw i8, ptr %12, i64 8
  %20 = load ptr, ptr %19, align 8, !tbaa !69
  %21 = getelementptr inbounds nuw i8, ptr %12, i64 16
  %22 = tail call noundef i32 @_ZN11upolynomial7manager11get_root_idEjPK3mpzRK4mpbq(ptr noundef nonnull align 8 dereferenceable(312) %17, i32 noundef %18, ptr noundef %20, ptr noundef nonnull align 8 dereferenceable(20) %21)
  %23 = load i32, ptr %13, align 8
  %24 = shl i32 %22, 3
  %25 = add i32 %24, 8
  %26 = and i32 %23, 7
  %27 = or disjoint i32 %26, %25
  store i32 %27, ptr %13, align 8
  br label %28

28:                                               ; preds = %16, %10
  %29 = phi i32 [ %27, %16 ], [ %14, %10 ]
  %30 = lshr i32 %29, 3
  br label %_ZN17algebraic_numbers7manager3imp5get_iERKNS_4anumE.exit

_ZN17algebraic_numbers7manager3imp5get_iERKNS_4anumE.exit: ; preds = %8, %28
  %.0.i = phi i32 [ %30, %28 ], [ %..i, %8 ]
  ret i32 %.0.i
}